target datalayout = "e-m:e-p270:32:32-p271:32:32-p272:64:64-i64:64-i128:128-f80:128-n8:16:32:64-S128"
target triple = "x86_64-unknown-linux-gnu"

%struct.ucontext_t = type { i64, ptr, %struct.stack_t, %struct.mcontext_t, %struct.__sigset_t, %struct._libc_fpstate, [4 x i64] }
%struct.stack_t = type { ptr, i32, i64 }
%struct.mcontext_t = type { [23 x i64], ptr, [8 x i64] }
%struct.__sigset_t = type { [16 x i64] }
%struct._libc_fpstate = type { i16, i16, i16, i16, i64, i64, i32, i32, [8 x %struct._libc_fpxreg], [16 x %struct._libc_xmmreg], [24 x i32] }
%struct._libc_fpxreg = type { [4 x i16], i16, [3 x i16] }
%struct._libc_xmmreg = type { [4 x i32] }

; Function Attrs: mustprogress nounwind uwtable
define dso_local noundef ptr @_ZN4absl18debugging_internal17GetProgramCounterEPv(ptr noundef %vuc) #0 {
entry:
  %retval = alloca ptr, align 8
  %vuc.addr = alloca ptr, align 8
  %context = alloca ptr, align 8
  store ptr %vuc, ptr %vuc.addr, align 8
  %0 = load ptr, ptr %vuc.addr, align 8
  %cmp = icmp ne ptr %0, null
  br i1 %cmp, label %if.then, label %if.end

if.then:                                          ; preds = %entry
  %1 = load ptr, ptr %vuc.addr, align 8
  store ptr %1, ptr %context, align 8
  %2 = load ptr, ptr %context, align 8
  %uc_mcontext = getelementptr inbounds %struct.ucontext_t, ptr %2, i32 0, i32 3
  %gregs = getelementptr inbounds %struct.mcontext_t, ptr %uc_mcontext, i32 0, i32 0
  %arrayidx = getelementptr inbounds [23 x i64], ptr %gregs, i64 0, i64 16
  %3 = load i64, ptr %arrayidx, align 8
  %4 = inttoptr i64 %3 to ptr
  store ptr %4, ptr %retval, align 8
  br label %return

if.end:                                           ; preds = %entry
  store ptr null, ptr %retval, align 8
  br label %return

return:                                           ; preds = %if.end, %if.then
  %5 = load ptr, ptr %retval, align 8
  ret ptr %5
}