; Function Attrs: mustprogress nofree norecurse nosync nounwind willreturn memory(argmem: read) uwtable
define dso_local noundef ptr @_ZN4absl18debugging_internal17GetProgramCounterEPv(ptr noundef readonly %vuc) local_unnamed_addr #2 {
entry:
  %cmp.not = icmp eq ptr %vuc, null
  br i1 %cmp.not, label %return, label %if.then

if.then:                                          ; preds = %entry
  %arrayidx = getelementptr inbounds nuw i8, ptr %vuc, i64 168
  %0 = load i64, ptr %arrayidx, align 8
  %1 = inttoptr i64 %0 to ptr
  br label %return

return:                                           ; preds = %entry, %if.then
  %retval.0 = phi ptr [ %1, %if.then ], [ null, %entry ]
  ret ptr %retval.0
}